; Function Attrs: nounwind uwtable
define ptr @l___private_Lean_Meta_ArgsPacker_0__Lean_Meta_ArgsPacker_Unary_curry_go___lambda__3(ptr noundef %0, ptr noundef %1, ptr noundef %2, ptr noundef %3, ptr noundef %4, ptr noundef %5, ptr noundef %6, ptr noundef %7, ptr noundef %8, ptr noundef %9, ptr noundef %10, ptr noundef %11) local_unnamed_addr #1 {
  tail call void @lean_inc_heartbeat() #7
  %13 = tail call noalias ptr @mi_malloc_small(i64 noundef 64) #7
  %14 = icmp eq ptr %13, null
  br i1 %14, label %15, label %lean_alloc_closure.exit

15:                                               ; preds = %12
  tail call void @lean_internal_panic_out_of_memory() #8
  unreachable

lean_alloc_closure.exit:                          ; preds = %12
  %16 = getelementptr inbounds nuw i8, ptr %13, i64 4
  store i32 1, ptr %13, align 4, !tbaa !8
  store i32 -184549312, ptr %16, align 4
  %17 = getelementptr inbounds nuw i8, ptr %13, i64 8
  store ptr @l___private_Lean_Meta_ArgsPacker_0__Lean_Meta_ArgsPacker_Unary_curry_go___lambda__2, ptr %17, align 8, !tbaa !12
  %18 = getelementptr inbounds nuw i8, ptr %13, i64 16
  store i16 11, ptr %18, align 8, !tbaa !16
  %19 = getelementptr inbounds nuw i8, ptr %13, i64 18
  store i16 5, ptr %19, align 2, !tbaa !16
  %20 = getelementptr inbounds nuw i8, ptr %13, i64 24
  store ptr %6, ptr %20, align 8, !tbaa !12
  %21 = getelementptr inbounds nuw i8, ptr %13, i64 32
  store ptr %0, ptr %21, align 8, !tbaa !12
  %22 = getelementptr inbounds nuw i8, ptr %13, i64 40
  store ptr %1, ptr %22, align 8, !tbaa !12
  %23 = getelementptr inbounds nuw i8, ptr %13, i64 48
  store ptr %2, ptr %23, align 8, !tbaa !12
  %24 = getelementptr inbounds nuw i8, ptr %13, i64 56
  store ptr %3, ptr %24, align 8, !tbaa !12
  %25 = tail call ptr @l_Lean_Meta_withLocalDecl___at_Lean_Meta_addPPExplicitToExposeDiff_visit___spec__4___rarg(ptr noundef %4, i8 noundef zeroext 0, ptr noundef %5, ptr noundef nonnull %13, i8 noundef zeroext 0, ptr noundef %7, ptr noundef %8, ptr noundef %9, ptr noundef %10, ptr noundef %11) #7
  ret ptr %25
}